; Function Attrs: nounwind uwtable
define hidden noundef i32 @dom_node_is_connected_read(ptr noundef %0, ptr nocapture noundef writeonly %1) local_unnamed_addr #0 {
  %3 = tail call ptr @dom_object_get_node(ptr noundef %0) #12
  %4 = icmp eq ptr %3, null
  br i1 %4, label %5, label %.preheader

5:                                                ; preds = %2
  tail call void @php_dom_throw_error(i32 noundef 11, i32 noundef 1) #12
  br label %13

.preheader:                                       ; preds = %2, %8
  %.0.i = phi ptr [ %10, %8 ], [ %3, %2 ]
  %6 = getelementptr inbounds i8, ptr %.0.i, i64 8
  %7 = load i32, ptr %6, align 8
  switch i32 %7, label %8 [
    i32 9, label %php_dom_is_node_connected.exit
    i32 13, label %php_dom_is_node_connected.exit
  ]

8:                                                ; preds = %.preheader
  %9 = getelementptr inbounds i8, ptr %.0.i, i64 40
  %10 = load ptr, ptr %9, align 8
  %.not.i = icmp eq ptr %10, null
  br i1 %.not.i, label %php_dom_is_node_connected.exit, label %.preheader

php_dom_is_node_connected.exit:                   ; preds = %.preheader, %.preheader, %8
  %11 = phi i32 [ 2, %8 ], [ 3, %.preheader ], [ 3, %.preheader ]
  %12 = getelementptr inbounds i8, ptr %1, i64 8
  store i32 %11, ptr %12, align 8
  br label %13

13:                                               ; preds = %php_dom_is_node_connected.exit, %5
  %.0 = phi i32 [ -1, %5 ], [ 0, %php_dom_is_node_connected.exit ]
  ret i32 %.0
}